target datalayout = "e-m:e-p270:32:32-p271:32:32-p272:64:64-i64:64-i128:128-f80:128-n8:16:32:64-S128"
target triple = "x86_64-pc-linux-gnu"

%struct.H5HF_huge_bt2_filt_indir_rec_t = type { i64, i64, i32, i64, i64 }

@H5HF_init_g = external global i8, align 1
@H5_libterm_g = external global i8, align 1

; Function Attrs: nounwind uwtable
define internal i32 @H5HF__huge_bt2_filt_indir_compare(ptr noundef %0, ptr noundef %1, ptr noundef %2) #0 {
  %4 = alloca ptr, align 8
  %5 = alloca ptr, align 8
  %6 = alloca ptr, align 8
  store ptr %0, ptr %4, align 8, !tbaa !3
  store ptr %1, ptr %5, align 8, !tbaa !3
  store ptr %2, ptr %6, align 8, !tbaa !21
  %7 = load i8, ptr @H5HF_init_g, align 1, !tbaa !9, !range !11, !noundef !12
  %8 = trunc i8 %7 to i1
  br i1 %8, label %13, label %9

9:                                                ; preds = %3
  %10 = load i8, ptr @H5_libterm_g, align 1, !tbaa !9, !range !11, !noundef !12
  %11 = trunc i8 %10 to i1
  %12 = xor i1 %11, true
  br label %13

13:                                               ; preds = %9, %3
  %14 = phi i1 [ true, %3 ], [ %12, %9 ]
  %15 = xor i1 %14, true
  %16 = xor i1 %15, true
  %17 = zext i1 %16 to i32
  %18 = sext i32 %17 to i64
  %19 = call i64 @llvm.expect.i64(i64 %18, i64 1)
  %20 = icmp ne i64 %19, 0
  br i1 %20, label %21, label %31

21:                                               ; preds = %13
  %22 = load ptr, ptr %4, align 8, !tbaa !3
  %23 = getelementptr inbounds nuw %struct.H5HF_huge_bt2_filt_indir_rec_t, ptr %22, i32 0, i32 4
  %24 = load i64, ptr %23, align 8, !tbaa !44
  %25 = load ptr, ptr %5, align 8, !tbaa !3
  %26 = getelementptr inbounds nuw %struct.H5HF_huge_bt2_filt_indir_rec_t, ptr %25, i32 0, i32 4
  %27 = load i64, ptr %26, align 8, !tbaa !44
  %28 = sub i64 %24, %27
  %29 = trunc i64 %28 to i32
  %30 = load ptr, ptr %6, align 8, !tbaa !21
  store i32 %29, ptr %30, align 4, !tbaa !25
  br label %31

31:                                               ; preds = %21, %13
  ret i32 0
}